; Function Attrs: mustprogress uwtable
define noundef range(i32 1, 257) i32 @_ZNK6icu_779SpoofData13appendValueToEiRNS_13UnicodeStringE(ptr noundef nonnull readonly align 8 captures(none) dereferenceable(56) %0, i32 noundef %1, ptr noundef nonnull align 8 dereferenceable(64) %2) local_unnamed_addr #1 align 2 personality ptr @__gxx_personality_v0 {
  %4 = alloca i16, align 2
  %5 = getelementptr inbounds nuw i8, ptr %0, i64 32
  %6 = load ptr, ptr %5, align 8, !tbaa !52
  %7 = sext i32 %1 to i64
  %8 = getelementptr inbounds i32, ptr %6, i64 %7
  %9 = load i32, ptr %8, align 4, !tbaa !53
  %10 = lshr i32 %9, 24
  %11 = add nuw nsw i32 %10, 1
  %12 = getelementptr inbounds nuw i8, ptr %0, i64 40
  %13 = load ptr, ptr %12, align 8, !tbaa !55
  %14 = getelementptr inbounds i16, ptr %13, i64 %7
  %15 = load i16, ptr %14, align 2, !tbaa !56
  %16 = icmp ult i32 %9, 16777216
  br i1 %16, label %17, label %19

17:                                               ; preds = %3
  call void @llvm.lifetime.start.p0(i64 2, ptr nonnull %4)
  store i16 %15, ptr %4, align 2, !tbaa !49
  %18 = call noundef nonnull align 8 dereferenceable(64) ptr @_ZN6icu_7713UnicodeString8doAppendEPKDsii(ptr noundef nonnull align 8 dereferenceable(64) %2, ptr noundef nonnull %4, i32 noundef 0, i32 noundef 1)
  call void @llvm.lifetime.end.p0(i64 2, ptr nonnull %4)
  br label %27

19:                                               ; preds = %3
  %20 = getelementptr inbounds nuw i8, ptr %0, i64 48
  %21 = load ptr, ptr %20, align 8, !tbaa !58
  %22 = zext i16 %15 to i64
  %23 = getelementptr inbounds nuw i16, ptr %21, i64 %22
  %24 = invoke noundef nonnull align 8 dereferenceable(64) ptr @_ZN6icu_7713UnicodeString8doAppendEPKDsii(ptr noundef nonnull align 8 dereferenceable(64) %2, ptr noundef %23, i32 noundef 0, i32 noundef %11)
          to label %_ZN6icu_7713UnicodeString6appendENS_14ConstChar16PtrEi.exit unwind label %25

_ZN6icu_7713UnicodeString6appendENS_14ConstChar16PtrEi.exit: ; preds = %19
  tail call void asm sideeffect "", "rm,~{memory},~{dirflag},~{fpsr},~{flags}"(ptr %23) #21, !srcloc !59
  br label %27

25:                                               ; preds = %19
  %26 = landingpad { ptr, i32 }
          cleanup
  tail call void asm sideeffect "", "rm,~{memory},~{dirflag},~{fpsr},~{flags}"(ptr %23) #21, !srcloc !59
  resume { ptr, i32 } %26

27:                                               ; preds = %_ZN6icu_7713UnicodeString6appendENS_14ConstChar16PtrEi.exit, %17
  ret i32 %11
}